target datalayout = "e-m:e-p270:32:32-p271:32:32-p272:64:64-i64:64-i128:128-f80:128-n8:16:32:64-S128"
target triple = "x86_64-pc-linux-gnu"

%struct.timeval = type { i64, i64 }
%struct.event = type { %struct.event_callback, %union.anon.1, i32, ptr, %union.anon.3, i16, i16, %struct.timeval }
%struct.event_callback = type { %struct.anon.0, i16, i8, i8, %union.anon, ptr }
%struct.anon.0 = type { ptr, ptr }
%union.anon = type { ptr }
%union.anon.1 = type { %struct.anon.2 }
%struct.anon.2 = type { ptr, ptr }
%union.anon.3 = type { %struct.anon.4 }
%struct.anon.4 = type { %struct.anon.5, %struct.timeval }
%struct.anon.5 = type { ptr, ptr }
%struct.conn = type { ptr, i32, i8, i8, i8, i8, i8, i8, i8, i8, ptr, i32, i32, i32, %struct.event, i16, i16, ptr, ptr, i32, i32, ptr, ptr, ptr, i32, ptr, i32, i32, i32, i32, i32, i32, i32, %struct.sockaddr_in6, i32, i8, %struct.anon.9, %union.protocol_binary_request_header, i64, i64, i16, i32, i32, ptr, ptr, ptr, ptr, ptr, ptr }
%struct.sockaddr_in6 = type { i16, i16, i32, %struct.in6_addr, i32 }
%struct.in6_addr = type { %union.anon.8 }
%union.anon.8 = type { [4 x i32] }
%struct.anon.9 = type { ptr, i64, i64 }
%union.protocol_binary_request_header = type { %struct.anon.10 }
%struct.anon.10 = type { i8, i8, i16, i8, i8, i16, i32, i32, i64 }

@out_of_memory.error_prefix = internal constant [14 x i8] c"SERVER_ERROR \00", align 1

; Function Attrs: nounwind uwtable
define dso_local void @out_of_memory(ptr noundef %0, ptr noundef %1) #0 {
  %3 = alloca ptr, align 8
  %4 = alloca ptr, align 8
  store ptr %0, ptr %3, align 8, !tbaa !10
  store ptr %1, ptr %4, align 8, !tbaa !29
  %5 = load ptr, ptr %3, align 8, !tbaa !10
  %6 = getelementptr inbounds nuw %struct.conn, ptr %5, i32 0, i32 29
  %7 = load i32, ptr %6, align 4, !tbaa !71
  %8 = icmp eq i32 %7, 4
  br i1 %8, label %9, label %19

9:                                                ; preds = %2
  %10 = load ptr, ptr %4, align 8, !tbaa !29
  %11 = call i32 @strncmp(ptr noundef %10, ptr noundef @out_of_memory.error_prefix, i64 noundef 13) #18
  %12 = icmp ne i32 %11, 0
  br i1 %12, label %16, label %13

13:                                               ; preds = %9
  %14 = load ptr, ptr %4, align 8, !tbaa !29
  %15 = getelementptr inbounds i8, ptr %14, i64 13
  store ptr %15, ptr %4, align 8, !tbaa !29
  br label %16

16:                                               ; preds = %13, %9
  %17 = load ptr, ptr %3, align 8, !tbaa !10
  %18 = load ptr, ptr %4, align 8, !tbaa !29
  call void @write_bin_error(ptr noundef %17, i32 noundef 130, ptr noundef %18, i32 noundef 0)
  br label %22

19:                                               ; preds = %2
  %20 = load ptr, ptr %3, align 8, !tbaa !10
  %21 = load ptr, ptr %4, align 8, !tbaa !29
  call void @out_string(ptr noundef %20, ptr noundef %21)
  br label %22

22:                                               ; preds = %19, %16
  ret void
}