; Function Attrs: nounwind uwtable
define dso_local void @out_of_memory(ptr noundef %0, ptr noundef %1) local_unnamed_addr #1 {
  %3 = getelementptr inbounds nuw i8, ptr %0, i64 260
  %4 = load i32, ptr %3, align 4, !tbaa !67
  %5 = icmp eq i32 %4, 4
  br i1 %5, label %6, label %8

6:                                                ; preds = %2
  %7 = tail call i32 @strncmp(ptr noundef nonnull dereferenceable(1) %1, ptr noundef nonnull dereferenceable(14) @out_of_memory.error_prefix, i64 noundef 13) #42
  %.not = icmp eq i32 %7, 0
  %spec.select.idx = select i1 %.not, i64 13, i64 0
  %spec.select = getelementptr inbounds nuw i8, ptr %1, i64 %spec.select.idx
  tail call void @write_bin_error(ptr noundef nonnull %0, i32 noundef 130, ptr noundef nonnull %spec.select, i32 noundef 0) #34
  br label %9

8:                                                ; preds = %2
  tail call void @out_string(ptr noundef nonnull %0, ptr noundef %1)
  br label %9

9:                                                ; preds = %8, %6
  ret void
}